ARM GAS  C:\Users\dev\AppData\Local\Temp\ccQVWuAp.s 			page 1


   1              		.syntax unified
   2              		.cpu cortex-m4
   3              		.eabi_attribute 27, 1
   4              		.fpu fpv4-sp-d16
   5              		.eabi_attribute 20, 1
   6              		.eabi_attribute 21, 1
   7              		.eabi_attribute 23, 3
   8              		.eabi_attribute 24, 1
   9              		.eabi_attribute 25, 1
  10              		.eabi_attribute 26, 1
  11              		.eabi_attribute 30, 1
  12              		.eabi_attribute 34, 1
  13              		.eabi_attribute 18, 4
  14              		.thumb
  15              		.syntax unified
  16              		.file	"debug.c"
  17              		.text
  18              	.Ltext0:
  19              		.cfi_sections	.debug_frame
  20              		.section	.text._write,"ax",%progbits
  21              		.align	2
  22              		.global	_write
  23              		.thumb
  24              		.thumb_func
  25              		.type	_write, %function
  26              	_write:
  27              	.LFB864:
  28              		.file 1 "debug.c"
   1:debug.c       **** /*******************************************************************************
   2:debug.c       **** * File Name: debug.c
   3:debug.c       **** *
   4:debug.c       **** * Version: 1.50
   5:debug.c       **** *
   6:debug.c       **** * Description:
   7:debug.c       **** *
   8:debug.c       **** * Hardware Dependency:
   9:debug.c       **** *  CY8CKIT-042 BLE
  10:debug.c       **** *
  11:debug.c       **** ********************************************************************************
  12:debug.c       **** * Copyright 2014-2016, Cypress Semiconductor Corporation. All rights reserved.
  13:debug.c       **** * This software is owned by Cypress Semiconductor Corporation and is protected
  14:debug.c       **** * by and subject to worldwide patent and copyright laws and treaties.
  15:debug.c       **** * Therefore, you may use this software only as provided in the license agreement
  16:debug.c       **** * accompanying the software package from which you obtained this software.
  17:debug.c       **** * CYPRESS AND ITS SUPPLIERS MAKE NO WARRANTY OF ANY KIND, EXPRESS OR IMPLIED,
  18:debug.c       **** * WITH REGARD TO THIS SOFTWARE, INCLUDING, BUT NOT LIMITED TO, NONINFRINGEMENT,
  19:debug.c       **** * IMPLIED WARRANTIES OF MERCHANTABILITY AND FITNESS FOR A PARTICULAR PURPOSE.
  20:debug.c       **** *******************************************************************************/
  21:debug.c       **** 
  22:debug.c       **** #include "debug.h"
  23:debug.c       **** #include "project.h"
  24:debug.c       **** #include "myUART.h"
  25:debug.c       **** 
  26:debug.c       **** #if (DEBUG_UART_ENABLED == YES)
  27:debug.c       **** 
  28:debug.c       ****     #if defined(__ARMCC_VERSION)
  29:debug.c       **** 
ARM GAS  C:\Users\dev\AppData\Local\Temp\ccQVWuAp.s 			page 2


  30:debug.c       ****         /* For MDK/RVDS compiler revise fputc() for the printf() */
  31:debug.c       ****         struct __FILE
  32:debug.c       ****         {
  33:debug.c       ****             int handle;
  34:debug.c       ****         };
  35:debug.c       **** 
  36:debug.c       ****         enum
  37:debug.c       ****         {
  38:debug.c       ****             STDIN_HANDLE,
  39:debug.c       ****             STDOUT_HANDLE,
  40:debug.c       ****             STDERR_HANDLE
  41:debug.c       ****         } ;
  42:debug.c       **** 
  43:debug.c       ****         FILE __stdin = {STDIN_HANDLE};
  44:debug.c       ****         FILE __stdout = {STDOUT_HANDLE};
  45:debug.c       ****         FILE __stderr = {STDERR_HANDLE};
  46:debug.c       **** 
  47:debug.c       ****         int fputc(int ch, FILE *file)
  48:debug.c       ****         {
  49:debug.c       ****             int ret = EOF;
  50:debug.c       **** 
  51:debug.c       ****             switch( file->handle )
  52:debug.c       ****             {
  53:debug.c       ****                 case STDOUT_HANDLE:
  54:debug.c       ****                     UART_PutChar(ch);
  55:debug.c       ****                     ret = ch ;
  56:debug.c       ****                     break ;
  57:debug.c       **** 
  58:debug.c       ****                 case STDERR_HANDLE:
  59:debug.c       ****                     ret = ch ;
  60:debug.c       ****                     break ;
  61:debug.c       **** 
  62:debug.c       ****                 default:
  63:debug.c       ****                     file = file;
  64:debug.c       ****                     break ;
  65:debug.c       ****             }
  66:debug.c       ****             return ret ;
  67:debug.c       ****         }
  68:debug.c       **** 
  69:debug.c       **** #elif defined (__ICCARM__)      /* IAR */
  70:debug.c       **** 
  71:debug.c       **** /* For IAR compiler revise __write() function for printf functionality */
  72:debug.c       **** size_t __write(int handle, const unsigned char * buffer, size_t size)
  73:debug.c       **** {
  74:debug.c       ****     size_t nChars = 0;
  75:debug.c       **** 
  76:debug.c       ****     if (buffer == 0)
  77:debug.c       ****     {
  78:debug.c       ****         /*
  79:debug.c       ****          * This means that we should flush internal buffers.  Since we
  80:debug.c       ****          * don't we just return.  (Remember, "handle" == -1 means that all
  81:debug.c       ****          * handles should be flushed.)
  82:debug.c       ****          */
  83:debug.c       ****         return (0);
  84:debug.c       ****     }
  85:debug.c       **** 
  86:debug.c       ****     for (/* Empty */; size != 0; --size)
ARM GAS  C:\Users\dev\AppData\Local\Temp\ccQVWuAp.s 			page 3


  87:debug.c       ****     {
  88:debug.c       ****         UART_PutChar(*buffer++);
  89:debug.c       ****         ++nChars;
  90:debug.c       ****     }
  91:debug.c       **** 
  92:debug.c       ****     return (nChars);
  93:debug.c       **** }
  94:debug.c       **** 
  95:debug.c       **** #else  /* (__GNUC__)  GCC */
  96:debug.c       **** 
  97:debug.c       **** /* For GCC compiler revise _write() function for printf functionality */
  98:debug.c       ****         int _write(int file, char *ptr, int len)
  99:debug.c       ****         {
  29              		.loc 1 99 0
  30              		.cfi_startproc
  31              		@ args = 0, pretend = 0, frame = 0
  32              		@ frame_needed = 0, uses_anonymous_args = 0
  33              	.LVL0:
  34 0000 70B5     		push	{r4, r5, r6, lr}
  35              		.cfi_def_cfa_offset 16
  36              		.cfi_offset 4, -16
  37              		.cfi_offset 5, -12
  38              		.cfi_offset 6, -8
  39              		.cfi_offset 14, -4
  40 0002 1646     		mov	r6, r2
  41              	.LVL1:
 100:debug.c       ****             int i;
 101:debug.c       ****             file = file;
 102:debug.c       ****             for (i = 0; i < len; i++)
  42              		.loc 1 102 0
  43 0004 0024     		movs	r4, #0
  44 0006 05E0     		b	.L2
  45              	.LVL2:
  46              	.L3:
 103:debug.c       ****             {
 104:debug.c       ****                 myUART_PutChar(*ptr++);
  47              		.loc 1 104 0 discriminator 3
  48 0008 4D1C     		adds	r5, r1, #1
  49              	.LVL3:
  50 000a 0878     		ldrb	r0, [r1]	@ zero_extendqisi2
  51 000c FFF7FEFF 		bl	myUART_PutChar
  52              	.LVL4:
 102:debug.c       ****             {
  53              		.loc 1 102 0 discriminator 3
  54 0010 0134     		adds	r4, r4, #1
  55              	.LVL5:
  56              		.loc 1 104 0 discriminator 3
  57 0012 2946     		mov	r1, r5
  58              	.LVL6:
  59              	.L2:
 102:debug.c       ****             {
  60              		.loc 1 102 0 discriminator 1
  61 0014 B442     		cmp	r4, r6
  62 0016 F7DB     		blt	.L3
 105:debug.c       ****             }
 106:debug.c       ****             return len;
 107:debug.c       ****         }
ARM GAS  C:\Users\dev\AppData\Local\Temp\ccQVWuAp.s 			page 4


  63              		.loc 1 107 0
  64 0018 3046     		mov	r0, r6
  65 001a 70BD     		pop	{r4, r5, r6, pc}
  66              		.cfi_endproc
  67              	.LFE864:
  68              		.size	_write, .-_write
  69              		.text
  70              	.Letext0:
  71              		.file 2 "c:\\program files (x86)\\cypress\\psoc creator\\4.4\\psoc creator\\import\\gnu\\arm\\5.4.
  72              		.file 3 "c:\\program files (x86)\\cypress\\psoc creator\\4.4\\psoc creator\\import\\gnu\\arm\\5.4.
  73              		.file 4 "Generated_Source\\PSoC6\\pdl\\drivers/peripheral/device/cy_device.h"
  74              		.file 5 "Generated_Source\\PSoC6\\pdl\\drivers/peripheral/i2s/cy_i2s.h"
  75              		.file 6 "Generated_Source\\PSoC6\\pdl\\drivers/peripheral/sar/cy_sar.h"
  76              		.file 7 "Generated_Source\\PSoC6\\pdl\\drivers/peripheral/scb/cy_scb_spi.h"
  77              		.file 8 "Generated_Source\\PSoC6\\pdl\\drivers/peripheral/tcpwm/cy_tcpwm_pwm.h"
  78              		.file 9 "Generated_Source\\PSoC6\\pdl\\middleware/ble/cy_ble_stack_host_main.h"
  79              		.file 10 "Generated_Source\\PSoC6\\pdl\\middleware/ble/cy_ble_gap.h"
  80              		.file 11 "Generated_Source\\PSoC6/ADC.h"
  81              		.file 12 "Generated_Source\\PSoC6\\pdl\\cmsis/include/core_cm4.h"
  82              		.file 13 "Generated_Source\\PSoC6/SPI.h"
  83              		.file 14 "Generated_Source\\PSoC6/PWM_TENS2.h"
  84              		.file 15 "Generated_Source\\PSoC6/AMP_PWM.h"
  85              		.file 16 "Generated_Source\\PSoC6/PWM_TENS.h"
  86              		.file 17 "Generated_Source\\PSoC6/PWM_FAN.h"
  87              		.file 18 "Generated_Source\\PSoC6/LCD_PWM.h"
  88              		.file 19 "Generated_Source\\PSoC6/I2S.h"
  89              		.file 20 "Generated_Source\\PSoC6/PWM_PEL1.h"
  90              		.file 21 "Generated_Source\\PSoC6/PWM_PEL2.h"
  91              		.file 22 "myUART.h"